target datalayout = "e-m:e-p270:32:32-p271:32:32-p272:64:64-i64:64-i128:128-f80:128-n8:16:32:64-S128"
target triple = "x86_64-pc-linux-gnu"

%"struct.std::array" = type { [2 x i64] }
%"class.rocksdb::AcqRelAtomic" = type { %"class.rocksdb::RelaxedAtomic" }
%"class.rocksdb::RelaxedAtomic" = type { %"struct.std::atomic" }
%"struct.std::atomic" = type { %"struct.std::__atomic_base" }
%"struct.std::__atomic_base" = type { i64 }
%"class.rocksdb::Slice" = type { ptr, i64 }
%"struct.rocksdb::clock_cache::ClockHandleBasicData" = type { ptr, ptr, %"struct.std::array", i64 }
%"class.rocksdb::clock_cache::BaseClockTable" = type { %"class.rocksdb::RelaxedAtomic", %"class.rocksdb::RelaxedAtomic", %"class.rocksdb::RelaxedAtomic", [40 x i8], %"class.rocksdb::AcqRelAtomic", %"class.rocksdb::AcqRelAtomic", %"class.rocksdb::AcqRelAtomic", [40 x i8], i32, ptr, ptr, ptr, [32 x i8] }
%"struct.rocksdb::clock_cache::ClockHandle" = type { %"struct.rocksdb::clock_cache::ClockHandleBasicData", %"class.rocksdb::AcqRelAtomic" }
%"class.std::_Function_base" = type { %"union.std::_Any_data", ptr }
%"union.std::_Any_data" = type { %"union.std::_Nocopy_types" }
%"union.std::_Nocopy_types" = type { { i64, i64 } }
%"struct.rocksdb::Cache::CacheItemHelper" = type { ptr, ptr, ptr, ptr, i32, ptr }
%"class.std::function.21" = type { %"class.std::_Function_base", ptr }

; Function Attrs: alwaysinline mustprogress nounwind uwtable
define linkonce_odr void @_ZNSt13__atomic_baseImE5storeEmSt12memory_order(ptr noundef nonnull align 8 dereferenceable(8) %0, i64 noundef %1, i32 noundef %2) #13 comdat align 2 {
  %4 = alloca ptr, align 8
  %5 = alloca i64, align 8
  %6 = alloca i32, align 4
  %7 = alloca i32, align 4
  %8 = alloca i64, align 8
  store ptr %0, ptr %4, align 8, !tbaa !391
  store i64 %1, ptr %5, align 8, !tbaa !9
  store i32 %2, ptr %6, align 4, !tbaa !393
  %9 = load ptr, ptr %4, align 8
  call void @llvm.lifetime.start.p0(i64 4, ptr %7) #19
  %10 = load i32, ptr %6, align 4, !tbaa !393
  %11 = call noundef i32 @_ZStanSt12memory_orderSt23__memory_order_modifier(i32 noundef %10, i32 noundef 65535)
  store i32 %11, ptr %7, align 4, !tbaa !393
  br label %12

12:                                               ; preds = %3
  br label %13

13:                                               ; preds = %12
  br label %14

14:                                               ; preds = %13
  br label %15

15:                                               ; preds = %14
  br label %16

16:                                               ; preds = %15
  br label %17

17:                                               ; preds = %16
  br label %18

18:                                               ; preds = %17
  br label %19

19:                                               ; preds = %18
  br label %20

20:                                               ; preds = %19
  %21 = getelementptr inbounds nuw %"struct.std::__atomic_base", ptr %9, i32 0, i32 0
  %22 = load i32, ptr %6, align 4, !tbaa !393
  %23 = load i64, ptr %5, align 8, !tbaa !9
  store i64 %23, ptr %8, align 8, !tbaa !9
  switch i32 %22, label %24 [
    i32 3, label %26
    i32 5, label %28
  ]

24:                                               ; preds = %20
  %25 = load i64, ptr %8, align 8
  store atomic i64 %25, ptr %21 monotonic, align 8
  br label %30

26:                                               ; preds = %20
  %27 = load i64, ptr %8, align 8
  store atomic i64 %27, ptr %21 release, align 8
  br label %30

28:                                               ; preds = %20
  %29 = load i64, ptr %8, align 8
  store atomic i64 %29, ptr %21 seq_cst, align 8
  br label %30

30:                                               ; preds = %28, %26, %24
  call void @llvm.lifetime.end.p0(i64 4, ptr %7) #19
  ret void
}

; Function Attrs: noinline noreturn nounwind uwtable
define linkonce_odr hidden void @__clang_call_terminate(ptr noundef %0) #11 comdat {
  %2 = call ptr @__cxa_begin_catch(ptr %0) #19
  call void @_ZSt9terminatev() #20
  unreachable
}

; Function Attrs: mustprogress nounwind uwtable
define linkonce_odr noundef i32 @_ZStanSt12memory_orderSt23__memory_order_modifier(i32 noundef %0, i32 noundef %1) #1 comdat {
  %3 = alloca i32, align 4
  %4 = alloca i32, align 4
  store i32 %0, ptr %3, align 4, !tbaa !393
  store i32 %1, ptr %4, align 4, !tbaa !486
  %5 = load i32, ptr %3, align 4, !tbaa !393
  %6 = load i32, ptr %4, align 4, !tbaa !486
  %7 = and i32 %5, %6
  ret i32 %7
}

; Function Attrs: mustprogress nounwind uwtable
define linkonce_odr noundef nonnull align 8 dereferenceable(8) ptr @_ZNSt14__array_traitsImLm2EE6_S_refERA2_Kmm(ptr noundef nonnull align 8 dereferenceable(16) %0, i64 noundef %1) #1 comdat align 2 {
  %3 = alloca ptr, align 8
  %4 = alloca i64, align 8
  store ptr %0, ptr %3, align 8, !tbaa !85
  store i64 %1, ptr %4, align 8, !tbaa !9
  %5 = load ptr, ptr %3, align 8, !tbaa !85
  %6 = load i64, ptr %4, align 8, !tbaa !9
  %7 = getelementptr inbounds nuw [2 x i64], ptr %5, i64 0, i64 %6
  ret ptr %7
}

; Function Attrs: mustprogress nounwind uwtable
define linkonce_odr void @_ZN7rocksdb12AcqRelAtomicImE5StoreEm(ptr noundef nonnull align 8 dereferenceable(8) %0, i64 noundef %1) #1 comdat align 2 {
  %3 = alloca ptr, align 8
  %4 = alloca i64, align 8
  store ptr %0, ptr %3, align 8, !tbaa !148
  store i64 %1, ptr %4, align 8, !tbaa !9
  %5 = load ptr, ptr %3, align 8
  %6 = getelementptr inbounds nuw %"class.rocksdb::RelaxedAtomic", ptr %5, i32 0, i32 0
  %7 = load i64, ptr %4, align 8, !tbaa !9
  call void @_ZNSt13__atomic_baseImE5storeEmSt12memory_order(ptr noundef nonnull align 8 dereferenceable(8) %6, i64 noundef %7, i32 noundef 3) #19
  ret void
}

; Function Attrs: alwaysinline mustprogress nounwind uwtable
define linkonce_odr noundef i64 @_ZNKSt13__atomic_baseImE4loadESt12memory_order(ptr noundef nonnull align 8 dereferenceable(8) %0, i32 noundef %1) #13 comdat align 2 personality ptr @__gxx_personality_v0 {
  %3 = alloca ptr, align 8
  %4 = alloca i32, align 4
  %5 = alloca i32, align 4
  %6 = alloca i64, align 8
  store ptr %0, ptr %3, align 8, !tbaa !391
  store i32 %1, ptr %4, align 4, !tbaa !393
  %7 = load ptr, ptr %3, align 8
  call void @llvm.lifetime.start.p0(i64 4, ptr %5) #19
  %8 = load i32, ptr %4, align 4, !tbaa !393
  %9 = invoke noundef i32 @_ZStanSt12memory_orderSt23__memory_order_modifier(i32 noundef %8, i32 noundef 65535)
          to label %10 unwind label %27

10:                                               ; preds = %2
  store i32 %9, ptr %5, align 4, !tbaa !393
  br label %11

11:                                               ; preds = %10
  br label %12

12:                                               ; preds = %11
  br label %13

13:                                               ; preds = %12
  br label %14

14:                                               ; preds = %13
  br label %15

15:                                               ; preds = %14
  br label %16

16:                                               ; preds = %15
  %17 = getelementptr inbounds nuw %"struct.std::__atomic_base", ptr %7, i32 0, i32 0
  %18 = load i32, ptr %4, align 4, !tbaa !393
  switch i32 %18, label %19 [
    i32 1, label %21
    i32 2, label %21
    i32 5, label %23
  ]

19:                                               ; preds = %16
  %20 = load atomic i64, ptr %17 monotonic, align 8
  store i64 %20, ptr %6, align 8
  br label %25

21:                                               ; preds = %16, %16
  %22 = load atomic i64, ptr %17 acquire, align 8
  store i64 %22, ptr %6, align 8
  br label %25

23:                                               ; preds = %16
  %24 = load atomic i64, ptr %17 seq_cst, align 8
  store i64 %24, ptr %6, align 8
  br label %25

25:                                               ; preds = %23, %21, %19
  %26 = load i64, ptr %6, align 8, !tbaa !9
  call void @llvm.lifetime.end.p0(i64 4, ptr %5) #19
  ret i64 %26

27:                                               ; preds = %2
  %28 = landingpad { ptr, i32 }
          catch ptr null
  %29 = extractvalue { ptr, i32 } %28, 0
  call void @__clang_call_terminate(ptr %29) #20
  unreachable
}

; Function Attrs: mustprogress nounwind uwtable
define linkonce_odr void @_ZN7rocksdb5SliceC2EPKcm(ptr noundef nonnull align 8 dereferenceable(16) %0, ptr noundef %1, i64 noundef %2) unnamed_addr #1 comdat align 2 {
  %4 = alloca ptr, align 8
  %5 = alloca ptr, align 8
  %6 = alloca i64, align 8
  store ptr %0, ptr %4, align 8, !tbaa !39
  store ptr %1, ptr %5, align 8, !tbaa !44
  store i64 %2, ptr %6, align 8, !tbaa !9
  %7 = load ptr, ptr %4, align 8
  %8 = getelementptr inbounds nuw %"class.rocksdb::Slice", ptr %7, i32 0, i32 0
  %9 = load ptr, ptr %5, align 8, !tbaa !44
  store ptr %9, ptr %8, align 8, !tbaa !41
  %10 = getelementptr inbounds nuw %"class.rocksdb::Slice", ptr %7, i32 0, i32 1
  %11 = load i64, ptr %6, align 8, !tbaa !9
  store i64 %11, ptr %10, align 8, !tbaa !45
  ret void
}

; Function Attrs: mustprogress nounwind uwtable
define linkonce_odr noundef nonnull align 8 dereferenceable(8) ptr @_ZNSt5arrayImLm2EEixEm(ptr noundef nonnull align 8 dereferenceable(16) %0, i64 noundef %1) #1 comdat align 2 {
  %3 = alloca ptr, align 8
  %4 = alloca i64, align 8
  store ptr %0, ptr %3, align 8, !tbaa !37
  store i64 %1, ptr %4, align 8, !tbaa !9
  %5 = load ptr, ptr %3, align 8
  %6 = getelementptr inbounds nuw %"struct.std::array", ptr %5, i32 0, i32 0
  %7 = load i64, ptr %4, align 8, !tbaa !9
  %8 = call noundef nonnull align 8 dereferenceable(8) ptr @_ZNSt14__array_traitsImLm2EE6_S_refERA2_Kmm(ptr noundef nonnull align 8 dereferenceable(16) %6, i64 noundef %7) #19
  ret ptr %8
}

; Function Attrs: mustprogress nounwind uwtable
define linkonce_odr noundef nonnull align 8 dereferenceable(8) ptr @_ZNKSt5arrayImLm2EEixEm(ptr noundef nonnull align 8 dereferenceable(16) %0, i64 noundef %1) #1 comdat align 2 {
  %3 = alloca ptr, align 8
  %4 = alloca i64, align 8
  store ptr %0, ptr %3, align 8, !tbaa !37
  store i64 %1, ptr %4, align 8, !tbaa !9
  %5 = load ptr, ptr %3, align 8
  %6 = getelementptr inbounds nuw %"struct.std::array", ptr %5, i32 0, i32 0
  %7 = load i64, ptr %4, align 8, !tbaa !9
  %8 = call noundef nonnull align 8 dereferenceable(8) ptr @_ZNSt14__array_traitsImLm2EE6_S_refERA2_Kmm(ptr noundef nonnull align 8 dereferenceable(16) %6, i64 noundef %7) #19
  ret ptr %8
}

; Function Attrs: mustprogress nounwind uwtable
define linkonce_odr noundef zeroext i1 @_ZNKSt14_Function_base8_M_emptyEv(ptr noundef nonnull align 8 dereferenceable(24) %0) #1 comdat align 2 {
  %2 = alloca ptr, align 8
  store ptr %0, ptr %2, align 8, !tbaa !445
  %3 = load ptr, ptr %2, align 8
  %4 = getelementptr inbounds nuw %"class.std::_Function_base", ptr %3, i32 0, i32 1
  %5 = load ptr, ptr %4, align 8, !tbaa !108
  %6 = icmp ne ptr %5, null
  %7 = xor i1 %6, true
  ret i1 %7
}

; Function Attrs: inlinehint mustprogress uwtable
define internal void @_ZN7rocksdb11clock_cache12_GLOBAL__N_19MarkEmptyERNS0_11ClockHandleE(ptr noundef nonnull align 8 dereferenceable(48) %0) #2 {
  %2 = alloca ptr, align 8
  store ptr %0, ptr %2, align 8, !tbaa !81
  %3 = load ptr, ptr %2, align 8, !tbaa !81
  %4 = getelementptr inbounds nuw %"struct.rocksdb::clock_cache::ClockHandle", ptr %3, i32 0, i32 1
  call void @_ZN7rocksdb12AcqRelAtomicImE5StoreEm(ptr noundef nonnull align 8 dereferenceable(8) %4, i64 noundef 0)
  ret void
}

; Function Attrs: mustprogress uwtable
define void @_ZNK7rocksdb11clock_cache20ClockHandleBasicData8FreeDataEPNS_15MemoryAllocatorE(ptr noundef nonnull align 8 dereferenceable(40) %0, ptr noundef %1) #0 align 2 {
  %3 = alloca ptr, align 8
  %4 = alloca ptr, align 8
  store ptr %0, ptr %3, align 8, !tbaa !63
  store ptr %1, ptr %4, align 8, !tbaa !15
  %5 = load ptr, ptr %3, align 8
  %6 = getelementptr inbounds nuw %"struct.rocksdb::clock_cache::ClockHandleBasicData", ptr %5, i32 0, i32 1
  %7 = load ptr, ptr %6, align 8, !tbaa !59
  %8 = getelementptr inbounds nuw %"struct.rocksdb::Cache::CacheItemHelper", ptr %7, i32 0, i32 0
  %9 = load ptr, ptr %8, align 8, !tbaa !136
  %10 = icmp ne ptr %9, null
  br i1 %10, label %11, label %19

11:                                               ; preds = %2
  %12 = getelementptr inbounds nuw %"struct.rocksdb::clock_cache::ClockHandleBasicData", ptr %5, i32 0, i32 1
  %13 = load ptr, ptr %12, align 8, !tbaa !59
  %14 = getelementptr inbounds nuw %"struct.rocksdb::Cache::CacheItemHelper", ptr %13, i32 0, i32 0
  %15 = load ptr, ptr %14, align 8, !tbaa !136
  %16 = getelementptr inbounds nuw %"struct.rocksdb::clock_cache::ClockHandleBasicData", ptr %5, i32 0, i32 0
  %17 = load ptr, ptr %16, align 8, !tbaa !56
  %18 = load ptr, ptr %4, align 8, !tbaa !15
  call void %15(ptr noundef %17, ptr noundef %18)
  br label %19

19:                                               ; preds = %11, %2
  ret void
}

; Function Attrs: mustprogress uwtable
define linkonce_odr noundef zeroext i1 @_ZNKSt8functionIFbRKN7rocksdb5SliceEPNS0_5Cache6HandleEbEEclES3_S6_b(ptr noundef nonnull align 8 dereferenceable(32) %0, ptr noundef nonnull align 8 dereferenceable(16) %1, ptr noundef %2, i1 noundef zeroext %3) #0 comdat align 2 {
  %5 = alloca ptr, align 8
  %6 = alloca ptr, align 8
  %7 = alloca ptr, align 8
  %8 = alloca i8, align 1
  store ptr %0, ptr %5, align 8, !tbaa !17
  store ptr %1, ptr %6, align 8, !tbaa !39
  store ptr %2, ptr %7, align 8, !tbaa !139
  %9 = zext i1 %3 to i8
  store i8 %9, ptr %8, align 1, !tbaa !11
  %10 = load ptr, ptr %5, align 8
  %11 = call noundef zeroext i1 @_ZNKSt14_Function_base8_M_emptyEv(ptr noundef nonnull align 8 dereferenceable(24) %10)
  br i1 %11, label %12, label %13

12:                                               ; preds = %4
  call void @_ZSt25__throw_bad_function_callv() #22
  unreachable

13:                                               ; preds = %4
  %14 = getelementptr inbounds nuw %"class.std::function.21", ptr %10, i32 0, i32 1
  %15 = load ptr, ptr %14, align 8, !tbaa !141
  %16 = getelementptr inbounds nuw %"class.std::_Function_base", ptr %10, i32 0, i32 0
  %17 = load ptr, ptr %6, align 8, !tbaa !39
  %18 = call noundef zeroext i1 %15(ptr noundef nonnull align 8 dereferenceable(16) %16, ptr noundef nonnull align 8 dereferenceable(16) %17, ptr noundef nonnull align 8 dereferenceable(8) %7, ptr noundef nonnull align 1 dereferenceable(1) %8)
  ret i1 %18
}

; Function Attrs: mustprogress nounwind uwtable
define linkonce_odr noundef i64 @_ZNK7rocksdb13RelaxedAtomicImE11LoadRelaxedEv(ptr noundef nonnull align 8 dereferenceable(8) %0) #1 comdat align 2 {
  %2 = alloca ptr, align 8
  store ptr %0, ptr %2, align 8, !tbaa !32
  %3 = load ptr, ptr %2, align 8
  %4 = getelementptr inbounds nuw %"class.rocksdb::RelaxedAtomic", ptr %3, i32 0, i32 0
  %5 = call noundef i64 @_ZNKSt13__atomic_baseImE4loadESt12memory_order(ptr noundef nonnull align 8 dereferenceable(8) %4, i32 noundef 0) #19
  ret i64 %5
}

; Function Attrs: inlinehint mustprogress uwtable
define weak_odr { ptr, i64 } @_ZN7rocksdb11clock_cache15ClockCacheShardINS0_20FixedHyperClockTableEE11ReverseHashERKSt5arrayImLm2EEPS5_j(ptr noundef nonnull align 8 dereferenceable(16) %0, ptr noundef %1, i32 noundef %2) #2 comdat align 2 {
  %4 = alloca %"class.rocksdb::Slice", align 8
  %5 = alloca ptr, align 8
  %6 = alloca ptr, align 8
  %7 = alloca i32, align 4
  store ptr %0, ptr %5, align 8, !tbaa !37
  store ptr %1, ptr %6, align 8, !tbaa !37
  store i32 %2, ptr %7, align 4, !tbaa !34
  %8 = load ptr, ptr %5, align 8, !tbaa !37
  %9 = call noundef nonnull align 8 dereferenceable(8) ptr @_ZNKSt5arrayImLm2EEixEm(ptr noundef nonnull align 8 dereferenceable(16) %8, i64 noundef 1) #19
  %10 = load i64, ptr %9, align 8, !tbaa !9
  %11 = load ptr, ptr %5, align 8, !tbaa !37
  %12 = call noundef nonnull align 8 dereferenceable(8) ptr @_ZNKSt5arrayImLm2EEixEm(ptr noundef nonnull align 8 dereferenceable(16) %11, i64 noundef 0) #19
  %13 = load i64, ptr %12, align 8, !tbaa !9
  %14 = load ptr, ptr %6, align 8, !tbaa !37
  %15 = call noundef nonnull align 8 dereferenceable(8) ptr @_ZNSt5arrayImLm2EEixEm(ptr noundef nonnull align 8 dereferenceable(16) %14, i64 noundef 1) #19
  %16 = load ptr, ptr %6, align 8, !tbaa !37
  %17 = call noundef nonnull align 8 dereferenceable(8) ptr @_ZNSt5arrayImLm2EEixEm(ptr noundef nonnull align 8 dereferenceable(16) %16, i64 noundef 0) #19
  call void @_ZN7rocksdb19BijectiveUnhash2x64EmmPmS0_(i64 noundef %10, i64 noundef %13, ptr noundef %15, ptr noundef %17)
  %18 = load i32, ptr %7, align 4, !tbaa !34
  %19 = zext i32 %18 to i64
  %20 = load ptr, ptr %6, align 8, !tbaa !37
  %21 = call noundef nonnull align 8 dereferenceable(8) ptr @_ZNSt5arrayImLm2EEixEm(ptr noundef nonnull align 8 dereferenceable(16) %20, i64 noundef 0) #19
  %22 = load i64, ptr %21, align 8, !tbaa !9
  %23 = xor i64 %22, %19
  store i64 %23, ptr %21, align 8, !tbaa !9
  %24 = load ptr, ptr %6, align 8, !tbaa !37
  call void @_ZN7rocksdb5SliceC2EPKcm(ptr noundef nonnull align 8 dereferenceable(16) %4, ptr noundef %24, i64 noundef 16)
  %25 = load { ptr, i64 }, ptr %4, align 8
  ret { ptr, i64 } %25
}

; Function Attrs: mustprogress nounwind uwtable
define linkonce_odr noundef nonnull align 8 dereferenceable(16) ptr @_ZNK7rocksdb11clock_cache20ClockHandleBasicData7GetHashEv(ptr noundef nonnull align 8 dereferenceable(40) %0) #1 comdat align 2 {
  %2 = alloca ptr, align 8
  store ptr %0, ptr %2, align 8, !tbaa !63
  %3 = load ptr, ptr %2, align 8
  %4 = getelementptr inbounds nuw %"struct.rocksdb::clock_cache::ClockHandleBasicData", ptr %3, i32 0, i32 2
  ret ptr %4
}

; Function Attrs: mustprogress nounwind uwtable
define linkonce_odr noundef zeroext i1 @_ZNKSt8functionIFbRKN7rocksdb5SliceEPNS0_5Cache6HandleEbEEcvbEv(ptr noundef nonnull align 8 dereferenceable(32) %0) #1 comdat align 2 {
  %2 = alloca ptr, align 8
  store ptr %0, ptr %2, align 8, !tbaa !17
  %3 = load ptr, ptr %2, align 8
  %4 = call noundef zeroext i1 @_ZNKSt14_Function_base8_M_emptyEv(ptr noundef nonnull align 8 dereferenceable(24) %3)
  %5 = xor i1 %4, true
  ret i1 %5
}

; Function Attrs: mustprogress uwtable
define void @_ZN7rocksdb11clock_cache14BaseClockTable27TrackAndReleaseEvictedEntryEPNS0_11ClockHandleE(ptr noundef nonnull align 64 dereferenceable(160) %0, ptr noundef %1) #0 align 2 {
  %3 = alloca ptr, align 8
  %4 = alloca ptr, align 8
  %5 = alloca i8, align 1
  %6 = alloca %"struct.std::array", align 8
  %7 = alloca %"class.rocksdb::Slice", align 8
  store ptr %0, ptr %3, align 8, !tbaa !65
  store ptr %1, ptr %4, align 8, !tbaa !81
  %8 = load ptr, ptr %3, align 8
  call void @llvm.lifetime.start.p0(i64 1, ptr %5) #19
  store i8 0, ptr %5, align 1, !tbaa !11
  %9 = getelementptr inbounds nuw %"class.rocksdb::clock_cache::BaseClockTable", ptr %8, i32 0, i32 10
  %10 = load ptr, ptr %9, align 16, !tbaa !126
  %11 = call noundef zeroext i1 @_ZNKSt8functionIFbRKN7rocksdb5SliceEPNS0_5Cache6HandleEbEEcvbEv(ptr noundef nonnull align 8 dereferenceable(32) %10) #19
  br i1 %11, label %12, label %33

12:                                               ; preds = %2
  call void @llvm.lifetime.start.p0(i64 16, ptr %6) #19
  %13 = getelementptr inbounds nuw %"class.rocksdb::clock_cache::BaseClockTable", ptr %8, i32 0, i32 10
  %14 = load ptr, ptr %13, align 16, !tbaa !126
  call void @llvm.lifetime.start.p0(i64 16, ptr %7) #19
  %15 = load ptr, ptr %4, align 8, !tbaa !81
  %16 = call noundef nonnull align 8 dereferenceable(16) ptr @_ZNK7rocksdb11clock_cache20ClockHandleBasicData7GetHashEv(ptr noundef nonnull align 8 dereferenceable(40) %15)
  %17 = getelementptr inbounds nuw %"class.rocksdb::clock_cache::BaseClockTable", ptr %8, i32 0, i32 11
  %18 = load ptr, ptr %17, align 8, !tbaa !105
  %19 = load i32, ptr %18, align 4, !tbaa !34
  %20 = call { ptr, i64 } @_ZN7rocksdb11clock_cache15ClockCacheShardINS0_20FixedHyperClockTableEE11ReverseHashERKSt5arrayImLm2EEPS5_j(ptr noundef nonnull align 8 dereferenceable(16) %16, ptr noundef %6, i32 noundef %19)
  %21 = getelementptr inbounds nuw { ptr, i64 }, ptr %7, i32 0, i32 0
  %22 = extractvalue { ptr, i64 } %20, 0
  store ptr %22, ptr %21, align 8
  %23 = getelementptr inbounds nuw { ptr, i64 }, ptr %7, i32 0, i32 1
  %24 = extractvalue { ptr, i64 } %20, 1
  store i64 %24, ptr %23, align 8
  %25 = load ptr, ptr %4, align 8, !tbaa !81
  %26 = load ptr, ptr %4, align 8, !tbaa !81
  %27 = getelementptr inbounds nuw %"struct.rocksdb::clock_cache::ClockHandle", ptr %26, i32 0, i32 1
  %28 = call noundef i64 @_ZNK7rocksdb13RelaxedAtomicImE11LoadRelaxedEv(ptr noundef nonnull align 8 dereferenceable(8) %27)
  %29 = and i64 %28, 1152921504606846976
  %30 = icmp ne i64 %29, 0
  %31 = call noundef zeroext i1 @_ZNKSt8functionIFbRKN7rocksdb5SliceEPNS0_5Cache6HandleEbEEclES3_S6_b(ptr noundef nonnull align 8 dereferenceable(32) %14, ptr noundef nonnull align 8 dereferenceable(16) %7, ptr noundef %25, i1 noundef zeroext %30)
  %32 = zext i1 %31 to i8
  store i8 %32, ptr %5, align 1, !tbaa !11
  call void @llvm.lifetime.end.p0(i64 16, ptr %7) #19
  call void @llvm.lifetime.end.p0(i64 16, ptr %6) #19
  br label %33

33:                                               ; preds = %12, %2
  %34 = load i8, ptr %5, align 1, !tbaa !11, !range !26, !noundef !27
  %35 = trunc i8 %34 to i1
  br i1 %35, label %40, label %36

36:                                               ; preds = %33
  %37 = load ptr, ptr %4, align 8, !tbaa !81
  %38 = getelementptr inbounds nuw %"class.rocksdb::clock_cache::BaseClockTable", ptr %8, i32 0, i32 9
  %39 = load ptr, ptr %38, align 8, !tbaa !69
  call void @_ZNK7rocksdb11clock_cache20ClockHandleBasicData8FreeDataEPNS_15MemoryAllocatorE(ptr noundef nonnull align 8 dereferenceable(40) %37, ptr noundef %39)
  br label %40

40:                                               ; preds = %36, %33
  %41 = load ptr, ptr %4, align 8, !tbaa !81
  call void @_ZN7rocksdb11clock_cache12_GLOBAL__N_19MarkEmptyERNS0_11ClockHandleE(ptr noundef nonnull align 8 dereferenceable(48) %41)
  call void @llvm.lifetime.end.p0(i64 1, ptr %5) #19
  ret void
}