; Function Attrs: mustprogress uwtable
define void @_ZN7rocksdb11clock_cache14BaseClockTable27TrackAndReleaseEvictedEntryEPNS0_11ClockHandleE(ptr noundef nonnull readonly align 64 captures(none) dereferenceable(160) %0, ptr noundef %1) local_unnamed_addr #0 align 2 personality ptr @__gxx_personality_v0 {
  %3 = alloca ptr, align 8
  %4 = alloca i8, align 1
  %5 = alloca %"struct.std::array", align 8
  %6 = alloca %"class.rocksdb::Slice", align 8
  %7 = getelementptr inbounds nuw i8, ptr %0, i64 144
  %8 = load ptr, ptr %7, align 16, !tbaa !99
  %9 = getelementptr inbounds nuw i8, ptr %8, i64 16
  %10 = load ptr, ptr %9, align 8, !tbaa !100
  %.not.i.i.not = icmp eq ptr %10, null
  br i1 %.not.i.i.not, label %.critedge, label %11

11:                                               ; preds = %2
  call void @llvm.lifetime.start.p0(i64 16, ptr nonnull %5) #31
  call void @llvm.lifetime.start.p0(i64 16, ptr nonnull %6) #31
  %12 = getelementptr inbounds nuw i8, ptr %1, i64 16
  %13 = getelementptr inbounds nuw i8, ptr %0, i64 152
  %14 = load ptr, ptr %13, align 8, !tbaa !110
  %15 = load i32, ptr %14, align 4, !tbaa !111
  %16 = getelementptr inbounds nuw i8, ptr %1, i64 24
  %17 = load i64, ptr %16, align 8, !tbaa !17
  %18 = load i64, ptr %12, align 8, !tbaa !17
  %19 = getelementptr inbounds nuw i8, ptr %5, i64 8
  call void @_ZN7rocksdb19BijectiveUnhash2x64EmmPmS0_(i64 noundef %17, i64 noundef %18, ptr noundef nonnull %19, ptr noundef nonnull %5)
  %20 = zext i32 %15 to i64
  %21 = load i64, ptr %5, align 8, !tbaa !17
  %22 = xor i64 %21, %20
  store i64 %22, ptr %5, align 8, !tbaa !17
  store ptr %5, ptr %6, align 8
  %23 = getelementptr inbounds nuw i8, ptr %6, i64 8
  store i64 16, ptr %23, align 8
  %24 = getelementptr inbounds nuw i8, ptr %1, i64 40
  %25 = load atomic i64, ptr %24 monotonic, align 8
  call void @llvm.lifetime.start.p0(i64 8, ptr nonnull %3)
  call void @llvm.lifetime.start.p0(i64 1, ptr nonnull %4)
  store ptr %1, ptr %3, align 8, !tbaa !148
  %26 = lshr i64 %25, 60
  %27 = trunc nuw nsw i64 %26 to i8
  %28 = and i8 %27, 1
  store i8 %28, ptr %4, align 1, !tbaa !150
  %29 = load ptr, ptr %9, align 8, !tbaa !100
  %.not.i.i6 = icmp eq ptr %29, null
  br i1 %.not.i.i6, label %30, label %_ZNKSt8functionIFbRKN7rocksdb5SliceEPNS0_5Cache6HandleEbEEclES3_S6_b.exit

30:                                               ; preds = %11
  call void @_ZSt25__throw_bad_function_callv() #33
  unreachable

_ZNKSt8functionIFbRKN7rocksdb5SliceEPNS0_5Cache6HandleEbEEclES3_S6_b.exit: ; preds = %11
  %31 = getelementptr inbounds nuw i8, ptr %8, i64 24
  %32 = load ptr, ptr %31, align 8, !tbaa !151
  %33 = call noundef zeroext i1 %32(ptr noundef nonnull align 8 dereferenceable(32) %8, ptr noundef nonnull align 8 dereferenceable(16) %6, ptr noundef nonnull align 8 dereferenceable(8) %3, ptr noundef nonnull align 1 dereferenceable(1) %4)
  call void @llvm.lifetime.end.p0(i64 8, ptr nonnull %3)
  call void @llvm.lifetime.end.p0(i64 1, ptr nonnull %4)
  call void @llvm.lifetime.end.p0(i64 16, ptr nonnull %6) #31
  call void @llvm.lifetime.end.p0(i64 16, ptr nonnull %5) #31
  br i1 %33, label %_ZNK7rocksdb11clock_cache20ClockHandleBasicData8FreeDataEPNS_15MemoryAllocatorE.exit, label %.critedge

.critedge:                                        ; preds = %2, %_ZNKSt8functionIFbRKN7rocksdb5SliceEPNS0_5Cache6HandleEbEEclES3_S6_b.exit
  %34 = getelementptr inbounds nuw i8, ptr %1, i64 8
  %35 = load ptr, ptr %34, align 8, !tbaa !34
  %36 = load ptr, ptr %35, align 8, !tbaa !73
  %.not.i = icmp eq ptr %36, null
  br i1 %.not.i, label %_ZNK7rocksdb11clock_cache20ClockHandleBasicData8FreeDataEPNS_15MemoryAllocatorE.exit, label %37

37:                                               ; preds = %.critedge
  %38 = getelementptr inbounds nuw i8, ptr %0, i64 136
  %39 = load ptr, ptr %38, align 8, !tbaa !76
  %40 = load ptr, ptr %1, align 8, !tbaa !30
  call void %36(ptr noundef %40, ptr noundef %39)
  br label %_ZNK7rocksdb11clock_cache20ClockHandleBasicData8FreeDataEPNS_15MemoryAllocatorE.exit

_ZNK7rocksdb11clock_cache20ClockHandleBasicData8FreeDataEPNS_15MemoryAllocatorE.exit: ; preds = %37, %.critedge, %_ZNKSt8functionIFbRKN7rocksdb5SliceEPNS0_5Cache6HandleEbEEclES3_S6_b.exit
  %41 = getelementptr inbounds nuw i8, ptr %1, i64 40
  store atomic i64 0, ptr %41 release, align 8
  ret void
}